target datalayout = "e-m:e-p270:32:32-p271:32:32-p272:64:64-i64:64-i128:128-f80:128-n8:16:32:64-S128"
target triple = "x86_64-pc-linux-gnu"

%"struct.__cxxabiv1::__dynamic_cast_info" = type { ptr, ptr, ptr, i64, ptr, ptr, i32, i32, i32, i32, i32, i32, i32, i8, i8, i8, i8, ptr }

; Function Attrs: mustprogress nounwind uwtable
define hidden void @_ZNK10__cxxabiv117__class_type_info24process_found_base_classEPNS_19__dynamic_cast_infoEPvi(ptr noundef nonnull align 8 dereferenceable(16) %0, ptr noundef %1, ptr noundef %2, i32 noundef %3) #1 align 2 {
  %5 = alloca ptr, align 8
  %6 = alloca ptr, align 8
  %7 = alloca ptr, align 8
  %8 = alloca i32, align 4
  store ptr %0, ptr %5, align 8, !tbaa !17
  store ptr %1, ptr %6, align 8, !tbaa !68
  store ptr %2, ptr %7, align 8, !tbaa !37
  store i32 %3, ptr %8, align 4, !tbaa !70
  %9 = load ptr, ptr %6, align 8, !tbaa !68
  %10 = getelementptr inbounds nuw %"struct.__cxxabiv1::__dynamic_cast_info", ptr %9, i32 0, i32 9
  %11 = load i32, ptr %10, align 4, !tbaa !52
  %12 = icmp eq i32 %11, 0
  br i1 %12, label %13, label %27

13:                                               ; preds = %4
  %14 = load ptr, ptr %7, align 8, !tbaa !37
  %15 = load ptr, ptr %6, align 8, !tbaa !68
  %16 = getelementptr inbounds nuw %"struct.__cxxabiv1::__dynamic_cast_info", ptr %15, i32 0, i32 4
  store ptr %14, ptr %16, align 8, !tbaa !47
  %17 = load i32, ptr %8, align 4, !tbaa !70
  %18 = load ptr, ptr %6, align 8, !tbaa !68
  %19 = getelementptr inbounds nuw %"struct.__cxxabiv1::__dynamic_cast_info", ptr %18, i32 0, i32 6
  store i32 %17, ptr %19, align 8, !tbaa !49
  %20 = load ptr, ptr %6, align 8, !tbaa !68
  %21 = getelementptr inbounds nuw %"struct.__cxxabiv1::__dynamic_cast_info", ptr %20, i32 0, i32 17
  %22 = load ptr, ptr %21, align 8, !tbaa !60
  %23 = load ptr, ptr %6, align 8, !tbaa !68
  %24 = getelementptr inbounds nuw %"struct.__cxxabiv1::__dynamic_cast_info", ptr %23, i32 0, i32 5
  store ptr %22, ptr %24, align 8, !tbaa !48
  %25 = load ptr, ptr %6, align 8, !tbaa !68
  %26 = getelementptr inbounds nuw %"struct.__cxxabiv1::__dynamic_cast_info", ptr %25, i32 0, i32 9
  store i32 1, ptr %26, align 4, !tbaa !52
  br label %61

27:                                               ; preds = %4
  %28 = load ptr, ptr %6, align 8, !tbaa !68
  %29 = getelementptr inbounds nuw %"struct.__cxxabiv1::__dynamic_cast_info", ptr %28, i32 0, i32 5
  %30 = load ptr, ptr %29, align 8, !tbaa !48
  %31 = load ptr, ptr %6, align 8, !tbaa !68
  %32 = getelementptr inbounds nuw %"struct.__cxxabiv1::__dynamic_cast_info", ptr %31, i32 0, i32 17
  %33 = load ptr, ptr %32, align 8, !tbaa !60
  %34 = icmp eq ptr %30, %33
  br i1 %34, label %35, label %51

35:                                               ; preds = %27
  %36 = load ptr, ptr %6, align 8, !tbaa !68
  %37 = getelementptr inbounds nuw %"struct.__cxxabiv1::__dynamic_cast_info", ptr %36, i32 0, i32 4
  %38 = load ptr, ptr %37, align 8, !tbaa !47
  %39 = load ptr, ptr %7, align 8, !tbaa !37
  %40 = icmp eq ptr %38, %39
  br i1 %40, label %41, label %51

41:                                               ; preds = %35
  %42 = load ptr, ptr %6, align 8, !tbaa !68
  %43 = getelementptr inbounds nuw %"struct.__cxxabiv1::__dynamic_cast_info", ptr %42, i32 0, i32 6
  %44 = load i32, ptr %43, align 8, !tbaa !49
  %45 = icmp eq i32 %44, 2
  br i1 %45, label %46, label %50

46:                                               ; preds = %41
  %47 = load i32, ptr %8, align 4, !tbaa !70
  %48 = load ptr, ptr %6, align 8, !tbaa !68
  %49 = getelementptr inbounds nuw %"struct.__cxxabiv1::__dynamic_cast_info", ptr %48, i32 0, i32 6
  store i32 %47, ptr %49, align 8, !tbaa !49
  br label %50

50:                                               ; preds = %46, %41
  br label %60

51:                                               ; preds = %35, %27
  %52 = load ptr, ptr %6, align 8, !tbaa !68
  %53 = getelementptr inbounds nuw %"struct.__cxxabiv1::__dynamic_cast_info", ptr %52, i32 0, i32 9
  %54 = load i32, ptr %53, align 4, !tbaa !52
  %55 = add nsw i32 %54, 1
  store i32 %55, ptr %53, align 4, !tbaa !52
  %56 = load ptr, ptr %6, align 8, !tbaa !68
  %57 = getelementptr inbounds nuw %"struct.__cxxabiv1::__dynamic_cast_info", ptr %56, i32 0, i32 6
  store i32 2, ptr %57, align 8, !tbaa !49
  %58 = load ptr, ptr %6, align 8, !tbaa !68
  %59 = getelementptr inbounds nuw %"struct.__cxxabiv1::__dynamic_cast_info", ptr %58, i32 0, i32 15
  store i8 1, ptr %59, align 2, !tbaa !58
  br label %60

60:                                               ; preds = %51, %50
  br label %61

61:                                               ; preds = %60, %13
  ret void
}