; Function Attrs: mustprogress nofree norecurse nosync nounwind willreturn memory(argmem: readwrite) uwtable
define hidden void @_ZNK10__cxxabiv117__class_type_info24process_found_base_classEPNS_19__dynamic_cast_infoEPvi(ptr noundef nonnull readnone align 8 captures(none) dereferenceable(16) %0, ptr noundef captures(none) %1, ptr noundef %2, i32 noundef %3) local_unnamed_addr #11 align 2 {
  %5 = getelementptr inbounds nuw i8, ptr %1, i64 60
  %6 = load i32, ptr %5, align 4, !tbaa !32
  %7 = icmp eq i32 %6, 0
  br i1 %7, label %8, label %14

8:                                                ; preds = %4
  %9 = getelementptr inbounds nuw i8, ptr %1, i64 32
  store ptr %2, ptr %9, align 8, !tbaa !26
  %10 = getelementptr inbounds nuw i8, ptr %1, i64 48
  store i32 %3, ptr %10, align 8, !tbaa !25
  %11 = getelementptr inbounds nuw i8, ptr %1, i64 80
  %12 = load ptr, ptr %11, align 8, !tbaa !21
  %13 = getelementptr inbounds nuw i8, ptr %1, i64 40
  store ptr %12, ptr %13, align 8, !tbaa !34
  store i32 1, ptr %5, align 4, !tbaa !32
  br label %33

14:                                               ; preds = %4
  %15 = getelementptr inbounds nuw i8, ptr %1, i64 40
  %16 = load ptr, ptr %15, align 8, !tbaa !34
  %17 = getelementptr inbounds nuw i8, ptr %1, i64 80
  %18 = load ptr, ptr %17, align 8, !tbaa !21
  %19 = icmp eq ptr %16, %18
  br i1 %19, label %20, label %29

20:                                               ; preds = %14
  %21 = getelementptr inbounds nuw i8, ptr %1, i64 32
  %22 = load ptr, ptr %21, align 8, !tbaa !26
  %23 = icmp eq ptr %22, %2
  br i1 %23, label %24, label %29

24:                                               ; preds = %20
  %25 = getelementptr inbounds nuw i8, ptr %1, i64 48
  %26 = load i32, ptr %25, align 8, !tbaa !25
  %27 = icmp eq i32 %26, 2
  br i1 %27, label %28, label %33

28:                                               ; preds = %24
  store i32 %3, ptr %25, align 8, !tbaa !25
  br label %33

29:                                               ; preds = %20, %14
  %30 = add nsw i32 %6, 1
  store i32 %30, ptr %5, align 4, !tbaa !32
  %31 = getelementptr inbounds nuw i8, ptr %1, i64 48
  store i32 2, ptr %31, align 8, !tbaa !25
  %32 = getelementptr inbounds nuw i8, ptr %1, i64 78
  store i8 1, ptr %32, align 2, !tbaa !31
  br label %33

33:                                               ; preds = %29, %28, %24, %8
  ret void
}